; ModuleID = '8/43.c'
source_filename = "8/43.c"
target datalayout = "e-m:e-p270:32:32-p271:32:32-p272:64:64-i64:64-f80:128-n8:16:32:64-S128"
target triple = "x86_64-pc-linux-gnu"

@.str = private unnamed_addr constant [7 x i8] c"%d %d \00", align 1
@.str.1 = private unnamed_addr constant [3 x i8] c"%d\00", align 1
@.str.2 = private unnamed_addr constant [4 x i8] c"%d \00", align 1
@.str.3 = private unnamed_addr constant [4 x i8] c"%d\0A\00", align 1

; Function Attrs: noinline nounwind uwtable
define dso_local void @main() #0 {
  %1 = alloca i32, align 4
  %2 = alloca i32, align 4
  %3 = alloca i32, align 4
  %4 = alloca [50 x i32], align 16
  %5 = alloca [50 x i32], align 16
  %6 = bitcast [50 x i32]* %4 to i8*
  call void @llvm.memset.p0i8.i64(i8* align 16 %6, i8 0, i64 200, i1 false)
  %7 = bitcast [50 x i32]* %5 to i8*
  call void @llvm.memset.p0i8.i64(i8* align 16 %7, i8 0, i64 200, i1 false)
  %8 = call i32 (i8*, ...) @__isoc99_scanf(i8* getelementptr inbounds ([7 x i8], [7 x i8]* @.str, i64 0, i64 0), i32* %1, i32* %2)
  store i32 0, i32* %3, align 4
  br label %9

9:                                                ; preds = %18, %0
  %10 = load i32, i32* %3, align 4
  %11 = load i32, i32* %1, align 4
  %12 = icmp slt i32 %10, %11
  br i1 %12, label %13, label %21

13:                                               ; preds = %9
  %14 = load i32, i32* %3, align 4
  %15 = sext i32 %14 to i64
  %16 = getelementptr inbounds [50 x i32], [50 x i32]* %4, i64 0, i64 %15
  %17 = call i32 (i8*, ...) @__isoc99_scanf(i8* getelementptr inbounds ([3 x i8], [3 x i8]* @.str.1, i64 0, i64 0), i32* %16)
  br label %18

18:                                               ; preds = %13
  %19 = load i32, i32* %3, align 4
  %20 = add nsw i32 %19, 1
  store i32 %20, i32* %3, align 4
  br label %9

21:                                               ; preds = %9
  store i32 0, i32* %3, align 4
  br label %22

22:                                               ; preds = %31, %21
  %23 = load i32, i32* %3, align 4
  %24 = load i32, i32* %2, align 4
  %25 = icmp slt i32 %23, %24
  br i1 %25, label %26, label %34

26:                                               ; preds = %22
  %27 = load i32, i32* %3, align 4
  %28 = sext i32 %27 to i64
  %29 = getelementptr inbounds [50 x i32], [50 x i32]* %5, i64 0, i64 %28
  %30 = call i32 (i8*, ...) @__isoc99_scanf(i8* getelementptr inbounds ([3 x i8], [3 x i8]* @.str.1, i64 0, i64 0), i32* %29)
  br label %31

31:                                               ; preds = %26
  %32 = load i32, i32* %3, align 4
  %33 = add nsw i32 %32, 1
  store i32 %33, i32* %3, align 4
  br label %22

34:                                               ; preds = %22
  %35 = getelementptr inbounds [50 x i32], [50 x i32]* %4, i64 0, i64 0
  %36 = load i32, i32* %1, align 4
  call void @str(i32* %35, i32 %36)
  %37 = getelementptr inbounds [50 x i32], [50 x i32]* %5, i64 0, i64 0
  %38 = load i32, i32* %2, align 4
  call void @str(i32* %37, i32 %38)
  store i32 0, i32* %3, align 4
  br label %39

39:                                               ; preds = %49, %34
  %40 = load i32, i32* %3, align 4
  %41 = load i32, i32* %1, align 4
  %42 = icmp slt i32 %40, %41
  br i1 %42, label %43, label %52

43:                                               ; preds = %39
  %44 = load i32, i32* %3, align 4
  %45 = sext i32 %44 to i64
  %46 = getelementptr inbounds [50 x i32], [50 x i32]* %4, i64 0, i64 %45
  %47 = load i32, i32* %46, align 4
  %48 = call i32 (i8*, ...) @printf(i8* getelementptr inbounds ([4 x i8], [4 x i8]* @.str.2, i64 0, i64 0), i32 %47)
  br label %49

49:                                               ; preds = %43
  %50 = load i32, i32* %3, align 4
  %51 = add nsw i32 %50, 1
  store i32 %51, i32* %3, align 4
  br label %39

52:                                               ; preds = %39
  store i32 0, i32* %3, align 4
  br label %53

53:                                               ; preds = %64, %52
  %54 = load i32, i32* %3, align 4
  %55 = load i32, i32* %2, align 4
  %56 = sub nsw i32 %55, 1
  %57 = icmp slt i32 %54, %56
  br i1 %57, label %58, label %67

58:                                               ; preds = %53
  %59 = load i32, i32* %3, align 4
  %60 = sext i32 %59 to i64
  %61 = getelementptr inbounds [50 x i32], [50 x i32]* %5, i64 0, i64 %60
  %62 = load i32, i32* %61, align 4
  %63 = call i32 (i8*, ...) @printf(i8* getelementptr inbounds ([4 x i8], [4 x i8]* @.str.2, i64 0, i64 0), i32 %62)
  br label %64

64:                                               ; preds = %58
  %65 = load i32, i32* %3, align 4
  %66 = add nsw i32 %65, 1
  store i32 %66, i32* %3, align 4
  br label %53

67:                                               ; preds = %53
  %68 = load i32, i32* %2, align 4
  %69 = sub nsw i32 %68, 1
  %70 = sext i32 %69 to i64
  %71 = getelementptr inbounds [50 x i32], [50 x i32]* %5, i64 0, i64 %70
  %72 = load i32, i32* %71, align 4
  %73 = call i32 (i8*, ...) @printf(i8* getelementptr inbounds ([4 x i8], [4 x i8]* @.str.3, i64 0, i64 0), i32 %72)
  ret void
}

; Function Attrs: argmemonly nounwind willreturn
declare void @llvm.memset.p0i8.i64(i8* nocapture writeonly, i8, i64, i1 immarg) #1

declare dso_local i32 @__isoc99_scanf(i8*, ...) #2

; Function Attrs: noinline nounwind uwtable
define dso_local void @str(i32* %0, i32 %1) #0 {
  %3 = alloca i32*, align 8
  %4 = alloca i32, align 4
  %5 = alloca i32, align 4
  %6 = alloca i32, align 4
  %7 = alloca i32, align 4
  store i32* %0, i32** %3, align 8
  store i32 %1, i32* %4, align 4
  store i32 0, i32* %5, align 4
  br label %8

8:                                                ; preds = %58, %2
  %9 = load i32, i32* %5, align 4
  %10 = load i32, i32* %4, align 4
  %11 = sub nsw i32 %10, 1
  %12 = icmp slt i32 %9, %11
  br i1 %12, label %13, label %61

13:                                               ; preds = %8
  %14 = load i32, i32* %5, align 4
  %15 = add nsw i32 %14, 1
  store i32 %15, i32* %6, align 4
  br label %16

16:                                               ; preds = %54, %13
  %17 = load i32, i32* %6, align 4
  %18 = load i32, i32* %4, align 4
  %19 = sub nsw i32 %18, 1
  %20 = icmp sle i32 %17, %19
  br i1 %20, label %21, label %57

21:                                               ; preds = %16
  %22 = load i32*, i32** %3, align 8
  %23 = load i32, i32* %5, align 4
  %24 = sext i32 %23 to i64
  %25 = getelementptr inbounds i32, i32* %22, i64 %24
  %26 = load i32, i32* %25, align 4
  %27 = load i32*, i32** %3, align 8
  %28 = load i32, i32* %6, align 4
  %29 = sext i32 %28 to i64
  %30 = getelementptr inbounds i32, i32* %27, i64 %29
  %31 = load i32, i32* %30, align 4
  %32 = icmp sgt i32 %26, %31
  br i1 %32, label %33, label %53

33:                                               ; preds = %21
  %34 = load i32*, i32** %3, align 8
  %35 = load i32, i32* %5, align 4
  %36 = sext i32 %35 to i64
  %37 = getelementptr inbounds i32, i32* %34, i64 %36
  %38 = load i32, i32* %37, align 4
  store i32 %38, i32* %7, align 4
  %39 = load i32*, i32** %3, align 8
  %40 = load i32, i32* %6, align 4
  %41 = sext i32 %40 to i64
  %42 = getelementptr inbounds i32, i32* %39, i64 %41
  %43 = load i32, i32* %42, align 4
  %44 = load i32*, i32** %3, align 8
  %45 = load i32, i32* %5, align 4
  %46 = sext i32 %45 to i64
  %47 = getelementptr inbounds i32, i32* %44, i64 %46
  store i32 %43, i32* %47, align 4
  %48 = load i32, i32* %7, align 4
  %49 = load i32*, i32** %3, align 8
  %50 = load i32, i32* %6, align 4
  %51 = sext i32 %50 to i64
  %52 = getelementptr inbounds i32, i32* %49, i64 %51
  store i32 %48, i32* %52, align 4
  br label %53

53:                                               ; preds = %33, %21
  br label %54

54:                                               ; preds = %53
  %55 = load i32, i32* %6, align 4
  %56 = add nsw i32 %55, 1
  store i32 %56, i32* %6, align 4
  br label %16

57:                                               ; preds = %16
  br label %58

58:                                               ; preds = %57
  %59 = load i32, i32* %5, align 4
  %60 = add nsw i32 %59, 1
  store i32 %60, i32* %5, align 4
  br label %8

61:                                               ; preds = %8
  ret void
}

declare dso_local i32 @printf(i8*, ...) #2


!llvm.module.flags = !{!0}
!llvm.ident = !{!1}

!0 = !{i32 1, !"wchar_size", i32 4}
!1 = !{!"clang version 10.0.0-4ubuntu1 "}
